; Function Attrs: null_pointer_is_valid sspstrong uwtable
define internal noundef zeroext i16 @gmr1_ie_rr_timing_ofs(ptr noundef %0, ptr noundef %1, ptr readnone captures(none) %2, i32 noundef %3, i32 %4, ptr readnone captures(none) %5, i32 %6) #1 {
  %8 = shl i32 %3, 3
  %9 = load i32, ptr @hf_rr_timing_ofs_ti, align 4
  %10 = tail call ptr @proto_tree_add_bits_item(ptr noundef %1, i32 noundef %9, ptr noundef %0, i32 noundef %8, i32 noundef 1, i32 noundef 0)
  %11 = or disjoint i32 %8, 1
  %12 = load i32, ptr @hf_rr_timing_ofs_value, align 4
  %13 = tail call ptr @proto_tree_add_bits_item(ptr noundef %1, i32 noundef %12, ptr noundef %0, i32 noundef %11, i32 noundef 15, i32 noundef 0)
  ret i16 2
}